target datalayout = "e-m:e-p270:32:32-p271:32:32-p272:64:64-i64:64-i128:128-f80:128-n8:16:32:64-S128"
target triple = "x86_64-pc-linux-gnu"

%class.ZStatValue = type { ptr, ptr, i32, i32 }
%class.ZStatSampler = type { %class.ZStatIterableValue, ptr }
%class.ZStatIterableValue = type { %class.ZStatValue, ptr }
%class.ZStatPhase = type { ptr, %class.ZStatSampler }
%class.ZStatPhaseGeneration = type <{ %class.ZStatPhase, i8, [7 x i8] }>

@_ZTV10ZStatPhase = linkonce_odr hidden unnamed_addr constant { [4 x ptr] } { [4 x ptr] [ptr null, ptr null, ptr @__cxa_pure_virtual, ptr @__cxa_pure_virtual] }, comdat, align 8
@.str.19 = private unnamed_addr constant [15 x i8] c"Old Generation\00", align 1
@.str.20 = private unnamed_addr constant [17 x i8] c"Young Generation\00", align 1
@_ZN12ZStatSamplerC1EPKcS1_PFv15LogTargetHandleRKS_RK19ZStatSamplerHistoryE = hidden unnamed_addr alias void (ptr, ptr, ptr, ptr), ptr @_ZN12ZStatSamplerC2EPKcS1_PFv15LogTargetHandleRKS_RK19ZStatSamplerHistoryE

; Function Attrs: mustprogress nounwind uwtable
define hidden void @_ZN10ZStatPhaseC2EPKcS1_(ptr noundef nonnull align 8 dereferenceable(48) %0, ptr noundef %1, ptr noundef %2) unnamed_addr #1 align 2 {
  %4 = alloca ptr, align 8
  %5 = alloca ptr, align 8
  %6 = alloca ptr, align 8
  store ptr %0, ptr %4, align 8
  store ptr %1, ptr %5, align 8
  store ptr %2, ptr %6, align 8
  %7 = load ptr, ptr %4, align 8
  store ptr getelementptr inbounds inrange(-16, 16) ({ [4 x ptr] }, ptr @_ZTV10ZStatPhase, i32 0, i32 0, i32 2), ptr %7, align 8
  %8 = getelementptr inbounds %class.ZStatPhase, ptr %7, i32 0, i32 1
  %9 = load ptr, ptr %5, align 8
  %10 = load ptr, ptr %6, align 8
  call void @_ZN12ZStatSamplerC1EPKcS1_PFv15LogTargetHandleRKS_RK19ZStatSamplerHistoryE(ptr noundef nonnull align 8 dereferenceable(40) %8, ptr noundef %9, ptr noundef %10, ptr noundef @_Z13ZStatUnitTime15LogTargetHandleRK12ZStatSamplerRK19ZStatSamplerHistory)
  ret void
}

; Function Attrs: mustprogress nounwind uwtable
define hidden void @_ZN20ZStatPhaseGenerationC2EPKc13ZGenerationId(ptr noundef nonnull align 8 dereferenceable(49) %0, ptr noundef %1, i8 noundef zeroext %2) unnamed_addr #1 align 2 {
  %4 = alloca ptr, align 8
  %5 = alloca ptr, align 8
  %6 = alloca i8, align 1
  store ptr %0, ptr %4, align 8
  store ptr %1, ptr %5, align 8
  store i8 %2, ptr %6, align 1
  %7 = load ptr, ptr %4, align 8
  %8 = load i8, ptr %6, align 1
  %9 = icmp eq i8 %8, 1
  %10 = select i1 %9, ptr @.str.19, ptr @.str.20
  %11 = load ptr, ptr %5, align 8
  call void @_ZN10ZStatPhaseC2EPKcS1_(ptr noundef nonnull align 8 dereferenceable(48) %7, ptr noundef %10, ptr noundef %11)
  store ptr getelementptr inbounds inrange(-16, 16) ({ [4 x ptr] }, ptr @_ZTV20ZStatPhaseGeneration, i32 0, i32 0, i32 2), ptr %7, align 8
  %12 = getelementptr inbounds %class.ZStatPhaseGeneration, ptr %7, i32 0, i32 1
  %13 = load i8, ptr %6, align 1
  store i8 %13, ptr %12, align 8
  ret void
}