; Function Attrs: mustprogress nofree norecurse nosync nounwind willreturn memory(readwrite, argmem: write, inaccessiblemem: none) uwtable
define hidden void @_ZN20ZStatPhaseGenerationC2EPKc13ZGenerationId(ptr noundef nonnull align 8 dereferenceable(49) %0, ptr noundef %1, i8 noundef zeroext %2) unnamed_addr #3 align 2 {
  %4 = icmp eq i8 %2, 1
  %5 = select i1 %4, ptr @.str.19, ptr @.str.20
  %6 = getelementptr inbounds i8, ptr %0, i64 8
  %7 = load i32, ptr @_ZN18ZStatIterableValueI12ZStatSamplerE6_countE, align 4
  %8 = add i32 %7, 1
  store i32 %8, ptr @_ZN18ZStatIterableValueI12ZStatSamplerE6_countE, align 4
  store ptr %5, ptr %6, align 8
  %9 = getelementptr inbounds i8, ptr %0, i64 16
  store ptr %1, ptr %9, align 8
  %10 = getelementptr inbounds i8, ptr %0, i64 24
  store i32 %7, ptr %10, align 8
  %11 = getelementptr inbounds i8, ptr %0, i64 28
  %12 = load i32, ptr @_ZN10ZStatValue11_cpu_offsetE, align 4
  store i32 %12, ptr %11, align 4
  %13 = add i32 %12, 24
  store i32 %13, ptr @_ZN10ZStatValue11_cpu_offsetE, align 4
  %14 = getelementptr inbounds i8, ptr %0, i64 32
  %15 = load ptr, ptr @_ZN18ZStatIterableValueI12ZStatSamplerE6_firstE, align 8
  store ptr %6, ptr @_ZN18ZStatIterableValueI12ZStatSamplerE6_firstE, align 8
  store ptr %15, ptr %14, align 8
  %16 = getelementptr inbounds i8, ptr %0, i64 40
  store ptr @_Z13ZStatUnitTime15LogTargetHandleRK12ZStatSamplerRK19ZStatSamplerHistory, ptr %16, align 8
  store ptr getelementptr inbounds inrange(-16, 16) (i8, ptr @_ZTV20ZStatPhaseGeneration, i64 16), ptr %0, align 8
  %17 = getelementptr inbounds i8, ptr %0, i64 48
  store i8 %2, ptr %17, align 8
  ret void
}